target datalayout = "e-m:e-p270:32:32-p271:32:32-p272:64:64-i64:64-i128:128-f80:128-n8:16:32:64-S128"
target triple = "x86_64-pc-linux-gnu"

; Function Attrs: nounwind uwtable
define internal i32 @zueci_u_lookup_uro(i32 noundef %0, ptr noundef %1, ptr noundef %2, ptr noundef %3, ptr noundef %4) #0 {
  %6 = alloca i32, align 4
  %7 = alloca i32, align 4
  %8 = alloca ptr, align 8
  %9 = alloca ptr, align 8
  %10 = alloca ptr, align 8
  %11 = alloca ptr, align 8
  %12 = alloca i32, align 4
  %13 = alloca i32, align 4
  %14 = alloca i16, align 2
  store i32 %0, ptr %7, align 4
  store ptr %1, ptr %8, align 8
  store ptr %2, ptr %9, align 8
  store ptr %3, ptr %10, align 8
  store ptr %4, ptr %11, align 8
  %15 = load i32, ptr %7, align 4
  %16 = sub i32 %15, 19968
  %17 = lshr i32 %16, 4
  store i32 %17, ptr %12, align 4
  %18 = load i32, ptr %7, align 4
  %19 = and i32 %18, 15
  %20 = shl i32 1, %19
  store i32 %20, ptr %13, align 4
  %21 = load ptr, ptr %8, align 8
  %22 = load i32, ptr %12, align 4
  %23 = zext i32 %22 to i64
  %24 = getelementptr inbounds i16, ptr %21, i64 %23
  %25 = load i16, ptr %24, align 2
  %26 = zext i16 %25 to i32
  %27 = load i32, ptr %13, align 4
  %28 = and i32 %26, %27
  %29 = icmp eq i32 %28, 0
  br i1 %29, label %30, label %31

30:                                               ; preds = %5
  store i32 0, ptr %6, align 4
  br label %81

31:                                               ; preds = %5
  %32 = load ptr, ptr %8, align 8
  %33 = load i32, ptr %12, align 4
  %34 = zext i32 %33 to i64
  %35 = getelementptr inbounds i16, ptr %32, i64 %34
  %36 = load i16, ptr %35, align 2
  %37 = zext i16 %36 to i32
  %38 = load i32, ptr %13, align 4
  %39 = sub i32 %38, 1
  %40 = and i32 %37, %39
  store i32 %40, ptr %13, align 4
  %41 = load i32, ptr %13, align 4
  %42 = load i32, ptr %13, align 4
  %43 = lshr i32 %42, 1
  %44 = and i32 %43, 1431655765
  %45 = sub i32 %41, %44
  store i32 %45, ptr %13, align 4
  %46 = load i32, ptr %13, align 4
  %47 = and i32 %46, 858993459
  %48 = load i32, ptr %13, align 4
  %49 = lshr i32 %48, 2
  %50 = and i32 %49, 858993459
  %51 = add i32 %47, %50
  store i32 %51, ptr %13, align 4
  %52 = load i32, ptr %13, align 4
  %53 = load i32, ptr %13, align 4
  %54 = lshr i32 %53, 4
  %55 = add i32 %52, %54
  %56 = and i32 %55, 252645135
  %57 = mul i32 %56, 16843009
  %58 = lshr i32 %57, 24
  store i32 %58, ptr %13, align 4
  %59 = load ptr, ptr %10, align 8
  %60 = load ptr, ptr %9, align 8
  %61 = load i32, ptr %12, align 4
  %62 = zext i32 %61 to i64
  %63 = getelementptr inbounds i16, ptr %60, i64 %62
  %64 = load i16, ptr %63, align 2
  %65 = zext i16 %64 to i32
  %66 = load i32, ptr %13, align 4
  %67 = add i32 %65, %66
  %68 = zext i32 %67 to i64
  %69 = getelementptr inbounds i16, ptr %59, i64 %68
  %70 = load i16, ptr %69, align 2
  store i16 %70, ptr %14, align 2
  %71 = load i16, ptr %14, align 2
  %72 = zext i16 %71 to i32
  %73 = ashr i32 %72, 8
  %74 = trunc i32 %73 to i8
  %75 = load ptr, ptr %11, align 8
  %76 = getelementptr inbounds i8, ptr %75, i64 0
  store i8 %74, ptr %76, align 1
  %77 = load i16, ptr %14, align 2
  %78 = trunc i16 %77 to i8
  %79 = load ptr, ptr %11, align 8
  %80 = getelementptr inbounds i8, ptr %79, i64 1
  store i8 %78, ptr %80, align 1
  store i32 2, ptr %6, align 4
  br label %81

81:                                               ; preds = %31, %30
  %82 = load i32, ptr %6, align 4
  ret i32 %82
}

; Function Attrs: nounwind uwtable
define internal i32 @zueci_u_gb2312(i32 noundef %0, ptr noundef %1) #0 {
  %3 = alloca i32, align 4
  %4 = alloca i32, align 4
  %5 = alloca ptr, align 8
  %6 = alloca i32, align 4
  %7 = alloca i32, align 4
  %8 = alloca i32, align 4
  %9 = alloca i16, align 2
  store i32 %0, ptr %4, align 4
  store ptr %1, ptr %5, align 8
  %10 = load i32, ptr %4, align 4
  %11 = icmp ult i32 %10, 128
  br i1 %11, label %12, label %17

12:                                               ; preds = %2
  %13 = load i32, ptr %4, align 4
  %14 = trunc i32 %13 to i8
  %15 = load ptr, ptr %5, align 8
  %16 = getelementptr inbounds i8, ptr %15, i64 0
  store i8 %14, ptr %16, align 1
  store i32 1, ptr %3, align 4
  br label %118

17:                                               ; preds = %2
  %18 = load i32, ptr %4, align 4
  %19 = icmp uge i32 %18, 19968
  br i1 %19, label %20, label %31

20:                                               ; preds = %17
  %21 = load i32, ptr %4, align 4
  %22 = icmp ult i32 %21, 40479
  br i1 %22, label %23, label %31

23:                                               ; preds = %20
  %24 = load i32, ptr %4, align 4
  %25 = icmp uge i32 %24, 40176
  br i1 %25, label %26, label %27

26:                                               ; preds = %23
  store i32 0, ptr %3, align 4
  br label %118

27:                                               ; preds = %23
  %28 = load i32, ptr %4, align 4
  %29 = load ptr, ptr %5, align 8
  %30 = call i32 @zueci_u_lookup_uro(i32 noundef %28, ptr noundef @zueci_gb2312_uro_u, ptr noundef @zueci_gb2312_uro_mb_ind, ptr noundef @zueci_gb2312_u_mb, ptr noundef %29)
  store i32 %30, ptr %3, align 4
  br label %118

31:                                               ; preds = %20, %17
  %32 = load i32, ptr %4, align 4
  %33 = load i16, ptr @zueci_gb2312_u_u, align 16
  %34 = zext i16 %33 to i32
  %35 = icmp uge i32 %32, %34
  br i1 %35, label %36, label %117

36:                                               ; preds = %31
  %37 = load i32, ptr %4, align 4
  %38 = load i16, ptr getelementptr inbounds ([818 x i16], ptr @zueci_gb2312_u_u, i64 0, i64 817), align 2
  %39 = zext i16 %38 to i32
  %40 = icmp ule i32 %37, %39
  br i1 %40, label %41, label %117

41:                                               ; preds = %36
  %42 = load i32, ptr %4, align 4
  %43 = load i16, ptr @zueci_gb2312_u_u, align 16
  %44 = zext i16 %43 to i32
  %45 = sub i32 %42, %44
  %46 = lshr i32 %45, 8
  %47 = zext i32 %46 to i64
  %48 = getelementptr inbounds [256 x i16], ptr @zueci_gb2312_u_ind, i64 0, i64 %47
  %49 = load i16, ptr %48, align 2
  %50 = zext i16 %49 to i32
  store i32 %50, ptr %6, align 4
  %51 = load i32, ptr %6, align 4
  %52 = add nsw i32 %51, 256
  %53 = icmp slt i32 %52, 818
  br i1 %53, label %54, label %57

54:                                               ; preds = %41
  %55 = load i32, ptr %6, align 4
  %56 = add nsw i32 %55, 256
  br label %58

57:                                               ; preds = %41
  br label %58

58:                                               ; preds = %57, %54
  %59 = phi i32 [ %56, %54 ], [ 818, %57 ]
  %60 = sub nsw i32 %59, 1
  store i32 %60, ptr %7, align 4
  br label %61

61:                                               ; preds = %115, %58
  %62 = load i32, ptr %6, align 4
  %63 = load i32, ptr %7, align 4
  %64 = icmp sle i32 %62, %63
  br i1 %64, label %65, label %116

65:                                               ; preds = %61
  %66 = load i32, ptr %6, align 4
  %67 = load i32, ptr %7, align 4
  %68 = add nsw i32 %66, %67
  %69 = ashr i32 %68, 1
  store i32 %69, ptr %8, align 4
  %70 = load i32, ptr %8, align 4
  %71 = sext i32 %70 to i64
  %72 = getelementptr inbounds [818 x i16], ptr @zueci_gb2312_u_u, i64 0, i64 %71
  %73 = load i16, ptr %72, align 2
  %74 = zext i16 %73 to i32
  %75 = load i32, ptr %4, align 4
  %76 = icmp ult i32 %74, %75
  br i1 %76, label %77, label %80

77:                                               ; preds = %65
  %78 = load i32, ptr %8, align 4
  %79 = add nsw i32 %78, 1
  store i32 %79, ptr %6, align 4
  br label %115

80:                                               ; preds = %65
  %81 = load i32, ptr %8, align 4
  %82 = sext i32 %81 to i64
  %83 = getelementptr inbounds [818 x i16], ptr @zueci_gb2312_u_u, i64 0, i64 %82
  %84 = load i16, ptr %83, align 2
  %85 = zext i16 %84 to i32
  %86 = load i32, ptr %4, align 4
  %87 = icmp ugt i32 %85, %86
  br i1 %87, label %88, label %91

88:                                               ; preds = %80
  %89 = load i32, ptr %8, align 4
  %90 = sub nsw i32 %89, 1
  store i32 %90, ptr %7, align 4
  br label %114

91:                                               ; preds = %80
  %92 = load i32, ptr %4, align 4
  %93 = icmp ugt i32 %92, 19968
  br i1 %93, label %94, label %97

94:                                               ; preds = %91
  %95 = load i32, ptr %8, align 4
  %96 = add nsw i32 %95, 6627
  br label %99

97:                                               ; preds = %91
  %98 = load i32, ptr %8, align 4
  br label %99

99:                                               ; preds = %97, %94
  %100 = phi i32 [ %96, %94 ], [ %98, %97 ]
  %101 = sext i32 %100 to i64
  %102 = getelementptr inbounds [7445 x i16], ptr @zueci_gb2312_u_mb, i64 0, i64 %101
  %103 = load i16, ptr %102, align 2
  store i16 %103, ptr %9, align 2
  %104 = load i16, ptr %9, align 2
  %105 = zext i16 %104 to i32
  %106 = ashr i32 %105, 8
  %107 = trunc i32 %106 to i8
  %108 = load ptr, ptr %5, align 8
  %109 = getelementptr inbounds i8, ptr %108, i64 0
  store i8 %107, ptr %109, align 1
  %110 = load i16, ptr %9, align 2
  %111 = trunc i16 %110 to i8
  %112 = load ptr, ptr %5, align 8
  %113 = getelementptr inbounds i8, ptr %112, i64 1
  store i8 %111, ptr %113, align 1
  store i32 2, ptr %3, align 4
  br label %118

114:                                              ; preds = %88
  br label %115

115:                                              ; preds = %114, %77
  br label %61, !llvm.loop !12

116:                                              ; preds = %61
  br label %117

117:                                              ; preds = %116, %36, %31
  store i32 0, ptr %3, align 4
  br label %118

118:                                              ; preds = %117, %99, %27, %26, %12
  %119 = load i32, ptr %3, align 4
  ret i32 %119
}