; Function Attrs: nofree norecurse nosync nounwind memory(argmem: write) uwtable
define internal noundef i32 @zueci_u_gb2312(i32 noundef %0, ptr nocapture noundef writeonly %1) #1 {
  %3 = icmp ult i32 %0, 128
  br i1 %3, label %4, label %6

4:                                                ; preds = %2
  %5 = trunc nuw nsw i32 %0 to i8
  store i8 %5, ptr %1, align 1
  br label %zueci_u_lookup_uro.exit

6:                                                ; preds = %2
  %7 = add i32 %0, -19968
  %or.cond = icmp ult i32 %7, 20511
  br i1 %or.cond, label %8, label %46

8:                                                ; preds = %6
  %9 = icmp ugt i32 %0, 40175
  br i1 %9, label %zueci_u_lookup_uro.exit, label %10

10:                                               ; preds = %8
  %11 = lshr i32 %7, 4
  %12 = and i32 %0, 15
  %13 = shl nuw nsw i32 1, %12
  %14 = zext nneg i32 %11 to i64
  %15 = getelementptr inbounds i16, ptr @zueci_gb2312_uro_u, i64 %14
  %16 = load i16, ptr %15, align 2
  %17 = zext i16 %16 to i32
  %18 = and i32 %13, %17
  %19 = icmp eq i32 %18, 0
  br i1 %19, label %zueci_u_lookup_uro.exit, label %20

20:                                               ; preds = %10
  %21 = add nuw nsw i32 %13, 65535
  %22 = and i32 %21, %17
  %23 = lshr i32 %22, 1
  %24 = and i32 %23, 21845
  %25 = sub nsw i32 %22, %24
  %26 = and i32 %25, 858993459
  %27 = lshr i32 %25, 2
  %28 = and i32 %27, 858993459
  %29 = add nuw nsw i32 %28, %26
  %30 = lshr i32 %29, 4
  %31 = add nuw nsw i32 %30, %29
  %32 = and i32 %31, 252645135
  %33 = mul i32 %32, 16843009
  %34 = lshr i32 %33, 24
  %35 = getelementptr inbounds i16, ptr @zueci_gb2312_uro_mb_ind, i64 %14
  %36 = load i16, ptr %35, align 2
  %37 = zext i16 %36 to i32
  %38 = add nuw nsw i32 %34, %37
  %39 = zext nneg i32 %38 to i64
  %40 = getelementptr inbounds i16, ptr @zueci_gb2312_u_mb, i64 %39
  %41 = load i16, ptr %40, align 2
  %42 = lshr i16 %41, 8
  %43 = trunc nuw i16 %42 to i8
  store i8 %43, ptr %1, align 1
  %44 = trunc i16 %41 to i8
  %45 = getelementptr inbounds i8, ptr %1, i64 1
  store i8 %44, ptr %45, align 1
  br label %zueci_u_lookup_uro.exit

46:                                               ; preds = %6
  %47 = add i32 %0, -164
  %or.cond37 = icmp ult i32 %47, 65346
  br i1 %or.cond37, label %48, label %zueci_u_lookup_uro.exit

48:                                               ; preds = %46
  %49 = lshr i32 %47, 8
  %50 = zext nneg i32 %49 to i64
  %51 = getelementptr inbounds [256 x i16], ptr @zueci_gb2312_u_ind, i64 0, i64 %50
  %52 = load i16, ptr %51, align 2
  %53 = zext i16 %52 to i32
  %54 = tail call i32 @llvm.umin.i32(i32 %53, i32 562)
  %55 = add nuw nsw i32 %54, 255
  %.not38 = icmp ult i32 %55, %53
  br i1 %.not38, label %zueci_u_lookup_uro.exit, label %.lr.ph

.lr.ph:                                           ; preds = %48, %80
  %.03140 = phi i32 [ %.1, %80 ], [ %53, %48 ]
  %.03239 = phi i32 [ %.133, %80 ], [ %55, %48 ]
  %56 = add nsw i32 %.03140, %.03239
  %57 = ashr i32 %56, 1
  %58 = sext i32 %57 to i64
  %59 = getelementptr inbounds [818 x i16], ptr @zueci_gb2312_u_u, i64 0, i64 %58
  %60 = load i16, ptr %59, align 2
  %61 = zext i16 %60 to i32
  %62 = icmp ult i32 %61, %0
  br i1 %62, label %63, label %65

63:                                               ; preds = %.lr.ph
  %64 = add nsw i32 %57, 1
  br label %80

65:                                               ; preds = %.lr.ph
  %66 = icmp ugt i32 %61, %0
  br i1 %66, label %67, label %69

67:                                               ; preds = %65
  %68 = add nsw i32 %57, -1
  br label %80

69:                                               ; preds = %65
  %70 = icmp ugt i32 %0, 19968
  %71 = add nsw i32 %57, 6627
  %72 = select i1 %70, i32 %71, i32 %57
  %73 = sext i32 %72 to i64
  %74 = getelementptr inbounds [7445 x i16], ptr @zueci_gb2312_u_mb, i64 0, i64 %73
  %75 = load i16, ptr %74, align 2
  %76 = lshr i16 %75, 8
  %77 = trunc nuw i16 %76 to i8
  store i8 %77, ptr %1, align 1
  %78 = trunc i16 %75 to i8
  %79 = getelementptr inbounds i8, ptr %1, i64 1
  store i8 %78, ptr %79, align 1
  br label %zueci_u_lookup_uro.exit

80:                                               ; preds = %67, %63
  %.133 = phi i32 [ %.03239, %63 ], [ %68, %67 ]
  %.1 = phi i32 [ %64, %63 ], [ %.03140, %67 ]
  %.not = icmp sgt i32 %.1, %.133
  br i1 %.not, label %zueci_u_lookup_uro.exit, label %.lr.ph, !llvm.loop !13

zueci_u_lookup_uro.exit:                          ; preds = %80, %48, %20, %10, %46, %8, %69, %4
  %.0 = phi i32 [ 1, %4 ], [ 2, %69 ], [ 0, %8 ], [ 0, %46 ], [ 2, %20 ], [ 0, %10 ], [ 0, %48 ], [ 0, %80 ]
  ret i32 %.0
}